#include <math.h>
#include <stdio.h>
#include <stdlib.h>
#include <string.h>

int main()
{
	double a,b,c,d,e,s,x,y,z,S;
	scanf("%lf%lf%lf%lf%lf",&a,&b,&c,&d,&e);
	x=e/180*3.1415926;
	y=pow(cos(x/2) ,2);
	s=(a+b+c+d)/2;
    z=(s-a)*(s-b)*(s-c)*(s-d)-a*b*c*d*y;
    S=sqrt(z);
	if(z<0){
		printf("Invalid input");
	}else {
		printf("%.4lf",S);
	}
	return 0;
}
